; Function Attrs: nounwind uwtable
define ptr @l___private_Lean_Elab_DeclNameGen_0__Lean_Elab_Command_NameGen_moduleToSuffix(ptr noundef %0) local_unnamed_addr #1 {
  br label %lean_dec.exit

lean_dec.exit:                                    ; preds = %lean_dec.exit.backedge, %1
  %.026 = phi ptr [ %0, %1 ], [ %69, %lean_dec.exit.backedge ]
  %2 = ptrtoint ptr %.026 to i64
  %3 = and i64 %2, 1
  %.not.i38 = icmp eq i64 %3, 0
  br i1 %.not.i38, label %7, label %4

4:                                                ; preds = %lean_dec.exit
  %5 = lshr i64 %2, 1
  %6 = trunc i64 %5 to i32
  br label %lean_obj_tag.exit

7:                                                ; preds = %lean_dec.exit
  %8 = getelementptr i8, ptr %.026, i64 4
  %.val.i = load i32, ptr %8, align 4
  %9 = lshr i32 %.val.i, 24
  br label %lean_obj_tag.exit

lean_obj_tag.exit:                                ; preds = %4, %7
  %.0.i = phi i32 [ %6, %4 ], [ %9, %7 ]
  switch i32 %.0.i, label %67 [
    i32 0, label %10
    i32 1, label %12
  ]

10:                                               ; preds = %lean_obj_tag.exit
  %11 = load ptr, ptr @l___private_Lean_Elab_DeclNameGen_0__Lean_Elab_Command_NameGen_mkBaseNameCore_visit___closed__1, align 8, !tbaa !9
  br label %lean_dec.exit29

12:                                               ; preds = %lean_obj_tag.exit
  %13 = getelementptr inbounds nuw i8, ptr %.026, i64 8
  %14 = load ptr, ptr %13, align 8, !tbaa !9
  %15 = ptrtoint ptr %14 to i64
  %16 = and i64 %15, 1
  %.not = icmp eq i64 %16, 0
  br i1 %.not, label %17, label %lean_inc.exit28

17:                                               ; preds = %12
  %.val.i39 = load i32, ptr %14, align 4, !tbaa !4
  %18 = icmp sgt i32 %.val.i39, 0
  br i1 %18, label %19, label %21, !prof !11

19:                                               ; preds = %17
  %20 = add nuw i32 %.val.i39, 1
  store i32 %20, ptr %14, align 4, !tbaa !4
  br label %lean_inc.exit28

21:                                               ; preds = %17
  %.not.i40 = icmp eq i32 %.val.i39, 0
  br i1 %.not.i40, label %lean_inc.exit28, label %22

22:                                               ; preds = %21
  tail call void @lean_inc_ref_cold(ptr noundef nonnull %14) #4
  br label %lean_inc.exit28

lean_inc.exit28:                                  ; preds = %22, %21, %19, %12
  %23 = getelementptr inbounds nuw i8, ptr %.026, i64 16
  %24 = load ptr, ptr %23, align 8, !tbaa !9
  %25 = ptrtoint ptr %24 to i64
  %26 = and i64 %25, 1
  %.not47 = icmp eq i64 %26, 0
  br i1 %.not47, label %27, label %lean_inc.exit27

27:                                               ; preds = %lean_inc.exit28
  %.val.i41 = load i32, ptr %24, align 4, !tbaa !4
  %28 = icmp sgt i32 %.val.i41, 0
  br i1 %28, label %29, label %31, !prof !11

29:                                               ; preds = %27
  %30 = add nuw i32 %.val.i41, 1
  store i32 %30, ptr %24, align 4, !tbaa !4
  br label %lean_inc.exit27

31:                                               ; preds = %27
  %.not.i42 = icmp eq i32 %.val.i41, 0
  br i1 %.not.i42, label %lean_inc.exit27, label %32

32:                                               ; preds = %31
  tail call void @lean_inc_ref_cold(ptr noundef nonnull %24) #4
  br label %lean_inc.exit27

lean_inc.exit27:                                  ; preds = %32, %31, %29, %lean_inc.exit28
  br i1 %.not.i38, label %33, label %lean_dec.exit31

33:                                               ; preds = %lean_inc.exit27
  %34 = load i32, ptr %.026, align 4, !tbaa !4
  %35 = icmp sgt i32 %34, 1
  br i1 %35, label %36, label %38, !prof !11

36:                                               ; preds = %33
  %37 = add nsw i32 %34, -1
  store i32 %37, ptr %.026, align 4, !tbaa !4
  br label %lean_dec.exit31

38:                                               ; preds = %33
  %.not.i = icmp eq i32 %34, 0
  br i1 %.not.i, label %lean_dec.exit31, label %39

39:                                               ; preds = %38
  tail call void @lean_dec_ref_cold(ptr noundef nonnull %.026) #4
  br label %lean_dec.exit31

lean_dec.exit31:                                  ; preds = %39, %38, %36, %lean_inc.exit27
  %40 = tail call ptr @l___private_Lean_Elab_DeclNameGen_0__Lean_Elab_Command_NameGen_moduleToSuffix(ptr noundef %14)
  %41 = load ptr, ptr @l___private_Lean_Elab_DeclNameGen_0__Lean_Elab_Command_NameGen_moduleToSuffix___closed__1, align 8, !tbaa !9
  %42 = tail call ptr @lean_string_append(ptr noundef %40, ptr noundef %41) #4
  %43 = tail call i32 @lean_string_utf8_get(ptr noundef %24, ptr noundef nonnull inttoptr (i64 1 to ptr)) #4
  %44 = tail call ptr @l_Char_toLower(i32 noundef %43) #4
  %45 = ptrtoint ptr %44 to i64
  %46 = lshr i64 %45, 1
  %47 = trunc i64 %46 to i32
  %48 = and i64 %45, 1
  %.not49 = icmp eq i64 %48, 0
  br i1 %.not49, label %49, label %lean_dec.exit30

49:                                               ; preds = %lean_dec.exit31
  %50 = load i32, ptr %44, align 4, !tbaa !4
  %51 = icmp sgt i32 %50, 1
  br i1 %51, label %52, label %54, !prof !11

52:                                               ; preds = %49
  %53 = add nsw i32 %50, -1
  store i32 %53, ptr %44, align 4, !tbaa !4
  br label %lean_dec.exit30

54:                                               ; preds = %49
  %.not.i32 = icmp eq i32 %50, 0
  br i1 %.not.i32, label %lean_dec.exit30, label %55

55:                                               ; preds = %54
  tail call void @lean_dec_ref_cold(ptr noundef nonnull %44) #4
  br label %lean_dec.exit30

lean_dec.exit30:                                  ; preds = %55, %54, %52, %lean_dec.exit31
  %56 = tail call ptr @lean_string_utf8_set(ptr noundef %24, ptr noundef nonnull inttoptr (i64 1 to ptr), i32 noundef %47) #4
  %57 = tail call ptr @lean_string_append(ptr noundef %42, ptr noundef %56) #4
  %58 = ptrtoint ptr %56 to i64
  %59 = and i64 %58, 1
  %.not50 = icmp eq i64 %59, 0
  br i1 %.not50, label %60, label %lean_dec.exit29

60:                                               ; preds = %lean_dec.exit30
  %61 = load i32, ptr %56, align 4, !tbaa !4
  %62 = icmp sgt i32 %61, 1
  br i1 %62, label %63, label %65, !prof !11

63:                                               ; preds = %60
  %64 = add nsw i32 %61, -1
  store i32 %64, ptr %56, align 4, !tbaa !4
  br label %lean_dec.exit29

65:                                               ; preds = %60
  %.not.i34 = icmp eq i32 %61, 0
  br i1 %.not.i34, label %lean_dec.exit29, label %66

66:                                               ; preds = %65
  tail call void @lean_dec_ref_cold(ptr noundef nonnull %56) #4
  br label %lean_dec.exit29

67:                                               ; preds = %lean_obj_tag.exit
  %68 = getelementptr inbounds nuw i8, ptr %.026, i64 8
  %69 = load ptr, ptr %68, align 8, !tbaa !9
  %70 = ptrtoint ptr %69 to i64
  %71 = and i64 %70, 1
  %.not51 = icmp eq i64 %71, 0
  br i1 %.not51, label %72, label %lean_inc.exit

72:                                               ; preds = %67
  %.val.i44 = load i32, ptr %69, align 4, !tbaa !4
  %73 = icmp sgt i32 %.val.i44, 0
  br i1 %73, label %74, label %76, !prof !11

74:                                               ; preds = %72
  %75 = add nuw i32 %.val.i44, 1
  store i32 %75, ptr %69, align 4, !tbaa !4
  br label %lean_inc.exit

76:                                               ; preds = %72
  %.not.i45 = icmp eq i32 %.val.i44, 0
  br i1 %.not.i45, label %lean_inc.exit, label %77

77:                                               ; preds = %76
  tail call void @lean_inc_ref_cold(ptr noundef nonnull %69) #4
  br label %lean_inc.exit

lean_inc.exit:                                    ; preds = %77, %76, %74, %67
  br i1 %.not.i38, label %78, label %lean_dec.exit.backedge

78:                                               ; preds = %lean_inc.exit
  %79 = load i32, ptr %.026, align 4, !tbaa !4
  %80 = icmp sgt i32 %79, 1
  br i1 %80, label %81, label %83, !prof !11

81:                                               ; preds = %78
  %82 = add nsw i32 %79, -1
  store i32 %82, ptr %.026, align 4, !tbaa !4
  br label %lean_dec.exit.backedge

83:                                               ; preds = %78
  %.not.i36 = icmp eq i32 %79, 0
  br i1 %.not.i36, label %lean_dec.exit.backedge, label %84

84:                                               ; preds = %83
  tail call void @lean_dec_ref_cold(ptr noundef nonnull %.026) #4
  br label %lean_dec.exit.backedge

lean_dec.exit.backedge:                           ; preds = %84, %83, %81, %lean_inc.exit
  br label %lean_dec.exit

lean_dec.exit29:                                  ; preds = %lean_dec.exit30, %63, %65, %66, %10
  %.0 = phi ptr [ %11, %10 ], [ %57, %66 ], [ %57, %65 ], [ %57, %63 ], [ %57, %lean_dec.exit30 ]
  ret ptr %.0
}